Certificate:
    Data:
        Version: 3 (0x2)
        Serial Number:
            4a:af:d9:5e:32:7f:fd:f6:7a:51:21:ed:86:8e:76:cb
        Signature Algorithm: sha256WithRSAEncryption
        Issuer: CN=Easy-RSA CA
        Validity
            Not Before: Jul 10 01:29:14 2025 GMT
            Not After : Oct 13 01:29:14 2027 GMT
        Subject: CN=sweetPixel
        Subject Public Key Info:
            Public Key Algorithm: rsaEncryption
                Public-Key: (2048 bit)
                Modulus:
                    00:ea:c8:ba:e5:eb:79:f4:d9:4e:8e:a4:29:55:d3:
                    0c:45:66:0e:99:e6:04:f7:5e:f6:35:75:b1:6a:25:
                    a4:1a:19:c7:f4:d8:de:7f:fc:2c:e6:e1:d4:fc:9c:
                    7c:ec:4c:08:c8:ae:bc:75:2d:b9:6c:27:8a:17:f0:
                    4a:76:c9:53:09:85:39:8e:60:43:8e:1a:1d:54:12:
                    2a:62:b9:d3:31:c3:a8:5c:e4:65:e0:c9:04:fa:5d:
                    9d:77:53:24:c4:7a:aa:bc:46:3b:b4:46:49:6c:73:
                    60:4b:fc:69:8f:95:d4:c3:74:9e:0e:80:35:ed:14:
                    0f:36:15:37:8b:d6:09:c0:94:e4:48:74:90:6a:aa:
                    2e:94:65:04:23:6c:8d:e4:02:3b:02:6f:9c:a3:59:
                    3d:43:8f:87:6e:84:90:1a:15:6f:87:61:7e:b7:17:
                    60:97:d4:60:43:08:b7:d9:ff:4a:83:ec:cd:d0:9f:
                    f8:84:67:32:35:e9:a8:01:60:cb:ea:e1:f5:40:ec:
                    c1:18:11:cc:61:1d:0c:30:e6:32:83:28:e7:ad:49:
                    3b:27:1b:b7:58:95:84:90:40:81:11:13:25:76:4b:
                    88:76:55:42:39:e2:8a:cc:9d:ce:e1:5e:1e:e1:93:
                    1e:eb:b2:fc:4e:93:a6:33:76:77:0d:2e:ed:00:23:
                    61:99
                Exponent: 65537 (0x10001)
        X509v3 extensions:
            X509v3 Basic Constraints: 
                CA:FALSE
            X509v3 Subject Key Identifier: 
                7B:EE:5B:23:B7:0C:D4:5C:70:65:29:5B:F1:E1:D3:B0:28:B1:D4:07
            X509v3 Authority Key Identifier: 
                keyid:B0:98:54:EB:27:5C:4B:11:54:88:64:8D:B8:09:62:B8:C0:C2:00:68
                DirName:/CN=Easy-RSA CA
                serial:33:31:E7:FA:49:9A:20:7D:04:34:23:6B:B6:95:27:0C:52:C3:5C:5C
            X509v3 Extended Key Usage: 
                TLS Web Client Authentication
            X509v3 Key Usage: 
                Digital Signature
    Signature Algorithm: sha256WithRSAEncryption
    Signature Value:
        07:91:8a:28:b3:08:83:59:95:d4:29:f7:44:7b:70:73:73:e6:
        48:01:3e:f6:7b:53:26:c8:2f:3d:0c:35:07:c1:47:ec:40:8b:
        93:99:53:68:1d:8c:50:db:32:54:a7:a3:d7:a6:75:da:0b:63:
        39:a1:5d:00:20:ab:0d:c3:6d:c4:8a:b8:cc:59:83:3b:1c:ff:
        a7:76:ca:1c:47:f8:42:9d:af:b1:bb:28:40:f2:43:2b:3a:1b:
        dc:35:52:04:d8:72:9a:29:a0:02:8e:bb:6b:ac:62:15:f4:80:
        98:4a:c9:be:02:fe:a1:43:90:d5:0c:55:97:d5:f2:93:5e:5d:
        b3:49:d3:8b:51:ef:3b:75:c2:a5:11:86:55:59:02:1d:bb:99:
        96:5a:9a:3d:bc:26:33:9c:44:a1:33:aa:52:68:dc:ba:e8:f5:
        d8:fa:48:19:7d:9f:f6:c6:83:ab:83:d3:bf:4f:87:50:f5:63:
        37:5d:c4:4c:98:91:18:3c:5e:27:88:0a:72:fc:2b:83:d0:40:
        a9:e5:86:76:aa:d5:80:7c:57:a4:2a:0e:fe:51:a1:a5:87:ed:
        c9:0b:52:fa:27:ae:4d:2f:6c:96:44:21:8b:1e:d8:28:41:d6:
        f7:6e:44:e9:d6:db:5b:c9:13:61:18:c8:d5:1d:56:b3:46:94:
        af:67:fe:49
-----BEGIN CERTIFICATE-----
MIIDWDCCAkCgAwIBAgIQSq/ZXjJ//fZ6USHtho52yzANBgkqhkiG9w0BAQsFADAW
MRQwEgYDVQQDDAtFYXN5LVJTQSBDQTAeFw0yNTA3MTAwMTI5MTRaFw0yNzEwMTMw
MTI5MTRaMBUxEzARBgNVBAMMCnN3ZWV0UGl4ZWwwggEiMA0GCSqGSIb3DQEBAQUA
A4IBDwAwggEKAoIBAQDqyLrl63n02U6OpClV0wxFZg6Z5gT3XvY1dbFqJaQaGcf0
2N5//Czm4dT8nHzsTAjIrrx1LblsJ4oX8Ep2yVMJhTmOYEOOGh1UEipiudMxw6hc
5GXgyQT6XZ13UyTEeqq8Rju0Rklsc2BL/GmPldTDdJ4OgDXtFA82FTeL1gnAlORI
dJBqqi6UZQQjbI3kAjsCb5yjWT1Dj4duhJAaFW+HYX63F2CX1GBDCLfZ/0qD7M3Q
n/iEZzI16agBYMvq4fVA7MEYEcxhHQww5jKDKOetSTsnG7dYlYSQQIEREyV2S4h2
VUI54orMnc7hXh7hkx7rsvxOk6YzdncNLu0AI2GZAgMBAAGjgaIwgZ8wCQYDVR0T
BAIwADAdBgNVHQ4EFgQUe+5bI7cM1FxwZSlb8eHTsCix1AcwUQYDVR0jBEowSIAU
sJhU6ydcSxFUiGSNuAliuMDCAGihGqQYMBYxFDASBgNVBAMMC0Vhc3ktUlNBIENB
ghQzMef6SZogfQQ0I2u2lScMUsNcXDATBgNVHSUEDDAKBggrBgEFBQcDAjALBgNV
HQ8EBAMCB4AwDQYJKoZIhvcNAQELBQADggEBAAeRiiizCINZldQp90R7cHNz5kgB
PvZ7UybILz0MNQfBR+xAi5OZU2gdjFDbMlSno9emddoLYzmhXQAgqw3DbcSKuMxZ
gzsc/6d2yhxH+EKdr7G7KEDyQys6G9w1UgTYcpopoAKOu2usYhX0gJhKyb4C/qFD
kNUMVZfV8pNeXbNJ04tR7zt1wqURhlVZAh27mZZamj28JjOcRKEzqlJo3Lro9dj6
SBl9n/bGg6uD079Ph1D1YzddxEyYkRg8XieICnL8K4PQQKnlhnaq1YB8V6QqDv5R
oaWH7ckLUvonrk0vbJZEIYse2ChB1vduROnW21vJE2EYyNUdVrNGlK9n/kk=
-----END CERTIFICATE-----
