Certificate:
    Data:
        Version: 3 (0x2)
        Serial Number:
            3b:e2:58:0d:01:88:e2:b1:f5:73:2b:f2:61:09:d6:94
        Signature Algorithm: sha256WithRSAEncryption
        Issuer: CN=Easy-RSA CA
        Validity
            Not Before: Jul 10 01:29:14 2025 GMT
            Not After : Oct 13 01:29:14 2027 GMT
        Subject: CN=hlabsHp
        Subject Public Key Info:
            Public Key Algorithm: rsaEncryption
                Public-Key: (2048 bit)
                Modulus:
                    00:d2:37:21:bf:c0:18:89:9f:d9:bd:a5:0c:87:48:
                    03:46:53:e5:e4:0f:fe:ef:e4:22:65:c6:9a:68:12:
                    4f:c9:bb:d4:09:b8:8f:12:de:c6:09:ca:8e:28:48:
                    75:ce:fd:4f:79:ea:39:06:5d:ba:f7:37:4e:a4:c4:
                    9e:42:a8:d2:0d:72:43:0f:d2:e7:a3:90:53:e7:5c:
                    f0:6e:99:c2:91:3f:db:8a:b1:e8:b8:15:55:14:7d:
                    06:25:65:6a:31:87:69:8c:aa:8b:5f:e7:c0:a1:b4:
                    23:ff:c6:01:7c:8c:a7:a6:75:ba:48:33:26:7f:27:
                    9a:f4:63:70:c2:d2:b7:f1:21:a9:52:c2:96:47:53:
                    85:40:ea:86:85:39:49:be:dc:f0:8e:28:9a:02:27:
                    af:f6:85:47:de:b4:3b:da:bd:15:87:96:aa:b7:24:
                    40:ce:36:f9:87:67:fd:5c:41:cd:40:bd:5e:a8:b7:
                    a0:a2:86:f8:d7:70:22:07:4f:31:58:aa:8f:87:05:
                    b2:8a:c3:10:5f:64:01:5d:f8:53:5f:4c:ed:1a:cc:
                    40:4a:11:79:ee:af:ea:32:24:cf:27:fa:d1:06:f5:
                    dd:c2:7c:d5:97:41:93:d1:cc:81:d4:21:25:c5:37:
                    b8:d8:94:62:a2:32:55:f0:de:e2:1c:2f:3f:b6:65:
                    9f:55
                Exponent: 65537 (0x10001)
        X509v3 extensions:
            X509v3 Basic Constraints: 
                CA:FALSE
            X509v3 Subject Key Identifier: 
                B6:4D:78:E4:50:72:24:74:C2:8C:A2:CA:07:A8:CF:02:90:BA:F3:E8
            X509v3 Authority Key Identifier: 
                keyid:B0:98:54:EB:27:5C:4B:11:54:88:64:8D:B8:09:62:B8:C0:C2:00:68
                DirName:/CN=Easy-RSA CA
                serial:33:31:E7:FA:49:9A:20:7D:04:34:23:6B:B6:95:27:0C:52:C3:5C:5C
            X509v3 Extended Key Usage: 
                TLS Web Client Authentication
            X509v3 Key Usage: 
                Digital Signature
    Signature Algorithm: sha256WithRSAEncryption
    Signature Value:
        69:fe:9e:a7:85:ca:98:61:3e:94:1a:0d:b3:3a:3c:88:94:67:
        59:f1:3e:70:e7:75:ca:7c:8e:66:6e:d3:b2:61:4b:62:82:f8:
        3b:ee:6a:c1:d7:33:fc:cd:f6:f7:c8:dc:82:40:41:f5:b8:29:
        e3:97:d3:61:ee:b2:45:c7:83:12:65:08:be:28:68:be:bd:8b:
        67:f8:14:65:1e:05:08:9b:91:40:b0:3e:fb:f0:34:54:aa:be:
        b4:63:e5:17:e3:68:74:34:31:60:71:15:a1:02:00:76:33:ae:
        a4:e0:e5:50:9a:80:e0:89:cd:86:ef:0e:c7:f5:b9:89:c3:8f:
        58:72:19:df:b7:2d:8d:4d:86:4c:e3:ba:53:0d:71:a2:f3:b9:
        db:fd:41:b0:5e:c4:6a:4a:86:b5:62:30:ad:3a:8b:d6:cd:dc:
        b9:4c:cd:69:47:c1:2f:25:fc:f8:e1:de:8d:bf:93:61:64:0d:
        d5:14:9c:38:3f:22:ea:7b:3d:10:77:bf:44:2b:bb:a5:24:17:
        70:5b:82:6b:3b:88:9f:85:86:c1:38:c8:57:03:8d:e7:ff:c5:
        26:d1:d9:4a:68:db:9e:44:b5:17:02:78:4f:5a:e5:4a:1a:38:
        ca:36:dd:5d:60:e3:0a:7d:b1:81:7f:01:27:64:22:ca:5a:ab:
        a7:0b:65:65
-----BEGIN CERTIFICATE-----
MIIDVTCCAj2gAwIBAgIQO+JYDQGI4rH1cyvyYQnWlDANBgkqhkiG9w0BAQsFADAW
MRQwEgYDVQQDDAtFYXN5LVJTQSBDQTAeFw0yNTA3MTAwMTI5MTRaFw0yNzEwMTMw
MTI5MTRaMBIxEDAOBgNVBAMMB2hsYWJzSHAwggEiMA0GCSqGSIb3DQEBAQUAA4IB
DwAwggEKAoIBAQDSNyG/wBiJn9m9pQyHSANGU+XkD/7v5CJlxppoEk/Ju9QJuI8S
3sYJyo4oSHXO/U956jkGXbr3N06kxJ5CqNINckMP0uejkFPnXPBumcKRP9uKsei4
FVUUfQYlZWoxh2mMqotf58ChtCP/xgF8jKemdbpIMyZ/J5r0Y3DC0rfxIalSwpZH
U4VA6oaFOUm+3PCOKJoCJ6/2hUfetDvavRWHlqq3JEDONvmHZ/1cQc1AvV6ot6Ci
hvjXcCIHTzFYqo+HBbKKwxBfZAFd+FNfTO0azEBKEXnur+oyJM8n+tEG9d3CfNWX
QZPRzIHUISXFN7jYlGKiMlXw3uIcLz+2ZZ9VAgMBAAGjgaIwgZ8wCQYDVR0TBAIw
ADAdBgNVHQ4EFgQUtk145FByJHTCjKLKB6jPApC68+gwUQYDVR0jBEowSIAUsJhU
6ydcSxFUiGSNuAliuMDCAGihGqQYMBYxFDASBgNVBAMMC0Vhc3ktUlNBIENBghQz
Mef6SZogfQQ0I2u2lScMUsNcXDATBgNVHSUEDDAKBggrBgEFBQcDAjALBgNVHQ8E
BAMCB4AwDQYJKoZIhvcNAQELBQADggEBAGn+nqeFyphhPpQaDbM6PIiUZ1nxPnDn
dcp8jmZu07JhS2KC+DvuasHXM/zN9vfI3IJAQfW4KeOX02HuskXHgxJlCL4oaL69
i2f4FGUeBQibkUCwPvvwNFSqvrRj5RfjaHQ0MWBxFaECAHYzrqTg5VCagOCJzYbv
Dsf1uYnDj1hyGd+3LY1NhkzjulMNcaLzudv9QbBexGpKhrViMK06i9bN3LlMzWlH
wS8l/Pjh3o2/k2FkDdUUnDg/Iup7PRB3v0Qru6UkF3Bbgms7iJ+FhsE4yFcDjef/
xSbR2Upo255EtRcCeE9a5UoaOMo23V1g4wp9sYF/ASdkIspaq6cLZWU=
-----END CERTIFICATE-----
