Certificate:
    Data:
        Version: 3 (0x2)
        Serial Number:
            87:59:f3:bf:c3:49:f2:da:34:25:1b:8d:42:5a:54:7e
        Signature Algorithm: sha256WithRSAEncryption
        Issuer: CN=Easy-RSA CA
        Validity
            Not Before: Jul 10 01:29:13 2025 GMT
            Not After : Oct 13 01:29:13 2027 GMT
        Subject: CN=hlabsPC
        Subject Public Key Info:
            Public Key Algorithm: rsaEncryption
                Public-Key: (2048 bit)
                Modulus:
                    00:ac:8c:a1:d7:f2:b5:e9:99:68:81:25:f7:03:69:
                    e6:ae:70:c1:9e:67:4c:4c:e8:ba:ad:92:9d:e3:b6:
                    f3:80:a9:4a:f9:f6:1a:bb:8e:0c:2b:2e:d6:9e:8b:
                    b2:47:f7:a3:a3:55:67:e3:ef:f7:cc:d0:18:b0:d1:
                    58:79:47:d4:18:71:1e:65:e0:b5:b8:6b:34:e4:d7:
                    b0:64:a0:38:95:71:b1:aa:22:48:69:e5:4a:77:78:
                    9a:bd:fe:3a:ee:23:29:01:67:9f:50:e5:2a:f6:c5:
                    93:8b:05:f4:f8:1f:1f:26:cb:32:c5:8f:22:05:f2:
                    01:ac:9c:af:76:40:1f:22:da:e0:87:0c:a0:d7:eb:
                    fa:82:0a:16:2a:72:c6:72:6b:db:89:26:a6:e8:75:
                    66:09:e1:bf:60:9e:c3:1a:f2:96:53:fe:3c:c8:de:
                    3a:95:a9:3f:e7:01:1a:bb:53:e7:35:99:6d:a2:be:
                    64:db:0b:d0:80:a7:1a:d0:98:84:7f:cb:c9:64:ef:
                    cc:46:c9:fc:bc:01:03:fa:e5:dd:b0:66:b5:46:3b:
                    54:ff:37:d7:b0:6f:83:21:3d:19:ea:af:92:53:1c:
                    30:65:8a:c4:fa:aa:9a:58:fb:89:cf:6b:73:b9:10:
                    3e:44:55:9e:5e:5a:af:5e:6a:86:0d:51:ee:b5:a1:
                    02:e9
                Exponent: 65537 (0x10001)
        X509v3 extensions:
            X509v3 Basic Constraints: 
                CA:FALSE
            X509v3 Subject Key Identifier: 
                4E:AF:C8:85:15:94:5C:9F:92:EA:5E:32:16:FF:F2:1A:A4:E9:51:89
            X509v3 Authority Key Identifier: 
                keyid:B0:98:54:EB:27:5C:4B:11:54:88:64:8D:B8:09:62:B8:C0:C2:00:68
                DirName:/CN=Easy-RSA CA
                serial:33:31:E7:FA:49:9A:20:7D:04:34:23:6B:B6:95:27:0C:52:C3:5C:5C
            X509v3 Extended Key Usage: 
                TLS Web Client Authentication
            X509v3 Key Usage: 
                Digital Signature
    Signature Algorithm: sha256WithRSAEncryption
    Signature Value:
        85:ea:a8:dd:ba:cc:f9:4b:95:b8:a9:8e:54:6d:fd:ee:0e:cd:
        57:d3:c4:3b:0c:b6:c9:b8:9a:4b:f9:2e:29:38:29:a2:e5:ce:
        f0:59:ea:19:06:63:84:7b:70:55:bc:57:7d:fa:78:b1:29:e0:
        f8:6a:2d:cf:e0:ed:27:34:a8:0e:2e:ce:5a:b7:dc:45:a1:1c:
        54:3a:fe:0e:e0:e7:57:72:7f:05:87:5c:54:03:e0:62:a8:20:
        f1:69:d7:78:c1:d7:9a:c7:f0:84:45:05:96:1e:ac:97:ac:fb:
        cf:4e:f7:c8:47:67:8f:35:a3:6d:84:90:30:17:d2:2c:aa:ab:
        40:ce:70:c0:37:57:13:40:c4:64:63:67:99:2c:f7:5f:b8:76:
        47:20:ca:71:35:50:47:de:1e:1b:37:59:30:f6:12:41:2a:b5:
        56:d1:67:28:9e:ae:d4:52:17:da:8a:0f:4e:f2:21:41:12:56:
        6d:34:a5:13:b1:70:8f:3f:68:31:c5:ed:3f:cd:98:c9:5c:70:
        de:76:fa:de:b8:0e:36:79:1c:eb:db:f0:b8:84:8e:11:ed:5c:
        ea:eb:98:92:4b:a4:66:9a:1c:2f:67:eb:6c:4f:26:98:b1:30:
        78:c2:ea:29:6d:a1:97:43:20:8f:d5:d5:1c:4d:36:53:6f:fa:
        08:99:10:bc
-----BEGIN CERTIFICATE-----
MIIDVjCCAj6gAwIBAgIRAIdZ87/DSfLaNCUbjUJaVH4wDQYJKoZIhvcNAQELBQAw
FjEUMBIGA1UEAwwLRWFzeS1SU0EgQ0EwHhcNMjUwNzEwMDEyOTEzWhcNMjcxMDEz
MDEyOTEzWjASMRAwDgYDVQQDDAdobGFic1BDMIIBIjANBgkqhkiG9w0BAQEFAAOC
AQ8AMIIBCgKCAQEArIyh1/K16ZlogSX3A2nmrnDBnmdMTOi6rZKd47bzgKlK+fYa
u44MKy7WnouyR/ejo1Vn4+/3zNAYsNFYeUfUGHEeZeC1uGs05NewZKA4lXGxqiJI
aeVKd3iavf467iMpAWefUOUq9sWTiwX0+B8fJssyxY8iBfIBrJyvdkAfItrghwyg
1+v6ggoWKnLGcmvbiSam6HVmCeG/YJ7DGvKWU/48yN46lak/5wEau1PnNZltor5k
2wvQgKca0JiEf8vJZO/MRsn8vAED+uXdsGa1RjtU/zfXsG+DIT0Z6q+SUxwwZYrE
+qqaWPuJz2tzuRA+RFWeXlqvXmqGDVHutaEC6QIDAQABo4GiMIGfMAkGA1UdEwQC
MAAwHQYDVR0OBBYEFE6vyIUVlFyfkupeMhb/8hqk6VGJMFEGA1UdIwRKMEiAFLCY
VOsnXEsRVIhkjbgJYrjAwgBooRqkGDAWMRQwEgYDVQQDDAtFYXN5LVJTQSBDQYIU
MzHn+kmaIH0ENCNrtpUnDFLDXFwwEwYDVR0lBAwwCgYIKwYBBQUHAwIwCwYDVR0P
BAQDAgeAMA0GCSqGSIb3DQEBCwUAA4IBAQCF6qjdusz5S5W4qY5Ubf3uDs1X08Q7
DLbJuJpL+S4pOCmi5c7wWeoZBmOEe3BVvFd9+nixKeD4ai3P4O0nNKgOLs5at9xF
oRxUOv4O4OdXcn8Fh1xUA+BiqCDxadd4wdeax/CERQWWHqyXrPvPTvfIR2ePNaNt
hJAwF9IsqqtAznDAN1cTQMRkY2eZLPdfuHZHIMpxNVBH3h4bN1kw9hJBKrVW0Wco
nq7UUhfaig9O8iFBElZtNKUTsXCPP2gxxe0/zZjJXHDedvreuA42eRzr2/C4hI4R
7Vzq65iSS6RmmhwvZ+tsTyaYsTB4wuopbaGXQyCP1dUcTTZTb/oImRC8
-----END CERTIFICATE-----
