Certificate:
    Data:
        Version: 3 (0x2)
        Serial Number:
            9f:6b:55:84:a1:f7:80:3f:6c:e3:4a:4a:e9:6f:db:6a
        Signature Algorithm: sha256WithRSAEncryption
        Issuer: CN=Easy-RSA CA
        Validity
            Not Before: Jul 10 01:29:12 2025 GMT
            Not After : Oct 13 01:29:12 2027 GMT
        Subject: CN=server
        Subject Public Key Info:
            Public Key Algorithm: rsaEncryption
                Public-Key: (2048 bit)
                Modulus:
                    00:b5:37:ed:c2:ab:ff:29:66:56:d5:4d:04:98:0a:
                    f3:de:ae:88:c0:2b:50:df:29:aa:d8:7f:53:ea:e7:
                    b1:fb:d7:13:72:99:30:ed:99:d0:e1:f9:c4:d1:8d:
                    fd:5a:e4:0a:94:98:be:a9:c4:dc:4a:1b:19:77:75:
                    89:ba:37:c4:02:b0:1a:43:c7:bc:1a:c4:ae:df:38:
                    46:b1:cf:bb:01:c8:1c:9c:5b:6d:81:31:bb:c5:41:
                    8f:9a:c0:9b:d0:ba:87:1a:44:73:15:f2:7e:66:9f:
                    83:7b:c2:0f:b3:85:e5:a1:9e:a5:2a:b3:13:61:92:
                    22:e7:1a:53:d1:1a:b2:94:42:f5:d9:c9:24:09:77:
                    76:69:a2:68:29:d9:00:18:b1:99:da:5a:82:d3:12:
                    54:e7:64:79:43:4b:db:5b:13:cc:00:8b:d9:be:28:
                    8b:df:63:43:33:34:4e:20:50:cc:56:85:9c:ca:28:
                    d5:11:03:11:ab:34:8f:b3:de:74:1d:17:5e:52:ae:
                    50:e6:95:24:11:56:9a:5d:df:e2:6f:5e:64:8b:ea:
                    4b:61:f7:27:99:a8:32:94:2b:be:0e:ea:17:48:24:
                    02:e9:4f:22:f4:66:dc:be:a5:74:79:d7:18:0a:c6:
                    51:b4:90:d2:03:76:db:f9:9b:6e:f7:d0:bc:c6:cc:
                    bc:1b
                Exponent: 65537 (0x10001)
        X509v3 extensions:
            X509v3 Basic Constraints: 
                CA:FALSE
            X509v3 Subject Key Identifier: 
                5C:2A:BB:64:D6:D1:02:3E:FD:9E:A1:DE:31:94:43:41:64:4F:25:B3
            X509v3 Authority Key Identifier: 
                keyid:B0:98:54:EB:27:5C:4B:11:54:88:64:8D:B8:09:62:B8:C0:C2:00:68
                DirName:/CN=Easy-RSA CA
                serial:33:31:E7:FA:49:9A:20:7D:04:34:23:6B:B6:95:27:0C:52:C3:5C:5C
            X509v3 Extended Key Usage: 
                TLS Web Server Authentication
            X509v3 Key Usage: 
                Digital Signature, Key Encipherment
    Signature Algorithm: sha256WithRSAEncryption
    Signature Value:
        72:ae:c1:49:bf:d0:dc:2f:c5:66:c1:11:7f:1e:c0:7e:f2:41:
        56:82:a4:a1:ea:8b:09:5e:1f:af:c6:27:6d:80:c8:3e:5a:a0:
        c4:14:37:cc:a4:14:08:7e:c6:94:59:7d:f0:5f:e8:5e:e7:96:
        2f:e7:48:23:43:dc:fe:35:2b:13:43:7d:f5:53:6b:74:3a:7e:
        c6:07:15:b1:1f:35:33:a0:4d:af:40:ec:26:78:da:18:eb:a1:
        64:25:d2:b3:a4:a9:63:98:ac:b2:5d:30:87:5e:6d:76:77:3d:
        c4:93:73:af:07:6d:b8:27:ce:c5:d4:8b:18:73:57:fa:93:b2:
        7b:52:da:5c:81:87:78:22:2a:94:d9:33:89:b1:72:fa:6c:95:
        3b:1d:7a:a4:8f:ad:53:08:e8:56:cb:8a:2a:62:b1:a0:0d:56:
        d2:8d:2a:33:e9:12:8c:38:18:d3:0b:34:e0:18:a3:41:c5:6c:
        41:34:df:fe:aa:0a:ef:ab:85:7c:81:29:f4:2f:2c:51:95:4d:
        bd:c2:bd:3c:fa:57:51:ff:d3:a0:7a:6b:54:af:eb:b1:a6:1a:
        7b:84:44:2b:e6:2a:e5:46:55:b2:f6:fc:89:6e:92:9b:92:ef:
        63:5c:d4:4e:ea:47:f3:0c:62:09:ca:df:70:34:07:6a:26:c5:
        51:a7:3a:9a
-----BEGIN CERTIFICATE-----
MIIDVTCCAj2gAwIBAgIRAJ9rVYSh94A/bONKSulv22owDQYJKoZIhvcNAQELBQAw
FjEUMBIGA1UEAwwLRWFzeS1SU0EgQ0EwHhcNMjUwNzEwMDEyOTEyWhcNMjcxMDEz
MDEyOTEyWjARMQ8wDQYDVQQDDAZzZXJ2ZXIwggEiMA0GCSqGSIb3DQEBAQUAA4IB
DwAwggEKAoIBAQC1N+3Cq/8pZlbVTQSYCvPerojAK1DfKarYf1Pq57H71xNymTDt
mdDh+cTRjf1a5AqUmL6pxNxKGxl3dYm6N8QCsBpDx7waxK7fOEaxz7sByBycW22B
MbvFQY+awJvQuocaRHMV8n5mn4N7wg+zheWhnqUqsxNhkiLnGlPRGrKUQvXZySQJ
d3Zpomgp2QAYsZnaWoLTElTnZHlDS9tbE8wAi9m+KIvfY0MzNE4gUMxWhZzKKNUR
AxGrNI+z3nQdF15SrlDmlSQRVppd3+JvXmSL6kth9yeZqDKUK74O6hdIJALpTyL0
Zty+pXR51xgKxlG0kNIDdtv5m2730LzGzLwbAgMBAAGjgaIwgZ8wCQYDVR0TBAIw
ADAdBgNVHQ4EFgQUXCq7ZNbRAj79nqHeMZRDQWRPJbMwUQYDVR0jBEowSIAUsJhU
6ydcSxFUiGSNuAliuMDCAGihGqQYMBYxFDASBgNVBAMMC0Vhc3ktUlNBIENBghQz
Mef6SZogfQQ0I2u2lScMUsNcXDATBgNVHSUEDDAKBggrBgEFBQcDATALBgNVHQ8E
BAMCBaAwDQYJKoZIhvcNAQELBQADggEBAHKuwUm/0NwvxWbBEX8ewH7yQVaCpKHq
iwleH6/GJ22AyD5aoMQUN8ykFAh+xpRZffBf6F7nli/nSCND3P41KxNDffVTa3Q6
fsYHFbEfNTOgTa9A7CZ42hjroWQl0rOkqWOYrLJdMIdebXZ3PcSTc68HbbgnzsXU
ixhzV/qTsntS2lyBh3giKpTZM4mxcvpslTsdeqSPrVMI6FbLiipisaANVtKNKjPp
Eow4GNMLNOAYo0HFbEE03/6qCu+rhXyBKfQvLFGVTb3CvTz6V1H/06B6a1Sv67Gm
GnuERCvmKuVGVbL2/IlukpuS72Nc1E7qR/MMYgnK33A0B2omxVGnOpo=
-----END CERTIFICATE-----
