Certificate:
    Data:
        Version: 3 (0x2)
        Serial Number:
            e9:70:2c:f5:db:9d:a8:7d:74:dc:d5:b8:a8:5c:7c:81
        Signature Algorithm: sha256WithRSAEncryption
        Issuer: CN=Easy-RSA CA
        Validity
            Not Before: Jul 10 01:29:13 2025 GMT
            Not After : Oct 13 01:29:13 2027 GMT
        Subject: CN=hlabsPixel
        Subject Public Key Info:
            Public Key Algorithm: rsaEncryption
                Public-Key: (2048 bit)
                Modulus:
                    00:d0:8c:37:9d:2b:5f:c3:7f:1b:d9:0f:09:15:73:
                    de:0d:29:0b:63:9a:44:fe:a2:78:5b:cd:9f:db:75:
                    44:fc:45:a8:59:4a:f7:9e:6d:88:d3:10:6e:8d:c0:
                    c7:93:f5:c0:11:45:0b:da:eb:76:ad:6b:c5:a8:7f:
                    5b:ed:80:34:97:a5:8c:9e:cd:7d:65:80:b9:55:d4:
                    cf:32:0f:82:51:2c:08:d1:b5:bd:29:d4:7b:9f:f3:
                    81:5a:1e:2b:e7:e0:bf:db:d3:87:a0:b9:ed:ab:06:
                    19:27:cd:c1:d4:0a:95:8a:45:93:95:f5:f3:89:4d:
                    cd:c0:34:20:ad:90:65:5c:cf:b6:76:9e:b5:34:6a:
                    e3:e5:2f:93:6d:77:8e:ac:ae:da:8c:19:1c:9a:b9:
                    3c:04:e4:af:c9:b8:1f:0c:fa:95:d2:85:d3:db:38:
                    1b:89:30:2d:47:71:0b:c2:86:1b:eb:e4:3a:5f:32:
                    82:7b:85:31:c4:ba:ed:bc:05:06:27:a7:58:c2:0d:
                    be:3e:56:6e:52:03:f8:d7:99:09:fb:4c:38:fa:aa:
                    20:74:5c:df:dd:45:2d:80:fe:90:6e:9c:0c:1f:4d:
                    a1:d0:1b:d6:84:81:2b:12:e8:11:93:68:ff:72:b4:
                    84:40:98:2e:4a:be:6c:bd:f9:5e:c1:cf:8a:ae:fe:
                    72:0d
                Exponent: 65537 (0x10001)
        X509v3 extensions:
            X509v3 Basic Constraints: 
                CA:FALSE
            X509v3 Subject Key Identifier: 
                40:8A:E5:D1:41:D8:1B:34:EF:01:17:D6:F1:40:C9:F9:A0:87:B2:93
            X509v3 Authority Key Identifier: 
                keyid:B0:98:54:EB:27:5C:4B:11:54:88:64:8D:B8:09:62:B8:C0:C2:00:68
                DirName:/CN=Easy-RSA CA
                serial:33:31:E7:FA:49:9A:20:7D:04:34:23:6B:B6:95:27:0C:52:C3:5C:5C
            X509v3 Extended Key Usage: 
                TLS Web Client Authentication
            X509v3 Key Usage: 
                Digital Signature
    Signature Algorithm: sha256WithRSAEncryption
    Signature Value:
        77:3b:72:40:79:5e:2d:af:98:32:5d:cd:4a:b8:6c:6a:6f:c3:
        f6:cf:21:4a:62:fe:a2:6a:20:24:1e:3e:80:d0:60:ce:29:cd:
        3e:6d:02:eb:e2:e6:6f:29:5e:80:48:61:7a:da:bd:e6:2c:22:
        16:ec:c5:90:bc:2e:81:8e:ac:71:7c:d1:1d:b2:d6:46:32:91:
        2b:dd:2c:9a:dd:25:02:16:25:6d:55:7b:86:68:bf:77:27:e9:
        3f:22:b0:14:2a:65:20:65:62:b0:7c:1d:72:9e:81:12:2f:46:
        07:6a:44:f9:f8:36:ed:7a:e0:8f:f5:83:b6:c4:2d:81:79:e1:
        b8:eb:02:cf:1e:5b:35:41:4b:67:76:90:80:e9:ec:27:71:31:
        07:be:ee:c6:a0:51:f4:7d:2a:66:85:04:aa:6a:51:25:fc:7d:
        3b:ad:56:0f:dd:cf:30:8a:80:ab:c2:3b:13:8b:09:aa:a8:00:
        1d:96:56:e7:1e:54:44:3b:06:4a:3b:df:67:f4:1c:aa:43:c1:
        4e:20:bb:04:f1:cd:72:c8:a4:f6:27:b7:0c:31:d3:99:13:a8:
        93:3b:82:54:0f:d1:aa:c1:f6:fe:0a:f4:77:70:e5:1f:9e:61:
        0d:41:c2:92:e1:0e:3b:d3:0c:2c:b8:30:fd:40:92:5a:b7:eb:
        1b:dc:e5:07
-----BEGIN CERTIFICATE-----
MIIDWTCCAkGgAwIBAgIRAOlwLPXbnah9dNzVuKhcfIEwDQYJKoZIhvcNAQELBQAw
FjEUMBIGA1UEAwwLRWFzeS1SU0EgQ0EwHhcNMjUwNzEwMDEyOTEzWhcNMjcxMDEz
MDEyOTEzWjAVMRMwEQYDVQQDDApobGFic1BpeGVsMIIBIjANBgkqhkiG9w0BAQEF
AAOCAQ8AMIIBCgKCAQEA0Iw3nStfw38b2Q8JFXPeDSkLY5pE/qJ4W82f23VE/EWo
WUr3nm2I0xBujcDHk/XAEUUL2ut2rWvFqH9b7YA0l6WMns19ZYC5VdTPMg+CUSwI
0bW9KdR7n/OBWh4r5+C/29OHoLntqwYZJ83B1AqVikWTlfXziU3NwDQgrZBlXM+2
dp61NGrj5S+TbXeOrK7ajBkcmrk8BOSvybgfDPqV0oXT2zgbiTAtR3ELwoYb6+Q6
XzKCe4UxxLrtvAUGJ6dYwg2+PlZuUgP415kJ+0w4+qogdFzf3UUtgP6QbpwMH02h
0BvWhIErEugRk2j/crSEQJguSr5svflewc+Krv5yDQIDAQABo4GiMIGfMAkGA1Ud
EwQCMAAwHQYDVR0OBBYEFECK5dFB2Bs07wEX1vFAyfmgh7KTMFEGA1UdIwRKMEiA
FLCYVOsnXEsRVIhkjbgJYrjAwgBooRqkGDAWMRQwEgYDVQQDDAtFYXN5LVJTQSBD
QYIUMzHn+kmaIH0ENCNrtpUnDFLDXFwwEwYDVR0lBAwwCgYIKwYBBQUHAwIwCwYD
VR0PBAQDAgeAMA0GCSqGSIb3DQEBCwUAA4IBAQB3O3JAeV4tr5gyXc1KuGxqb8P2
zyFKYv6iaiAkHj6A0GDOKc0+bQLr4uZvKV6ASGF62r3mLCIW7MWQvC6BjqxxfNEd
stZGMpEr3Sya3SUCFiVtVXuGaL93J+k/IrAUKmUgZWKwfB1ynoESL0YHakT5+Dbt
euCP9YO2xC2BeeG46wLPHls1QUtndpCA6ewncTEHvu7GoFH0fSpmhQSqalEl/H07
rVYP3c8wioCrwjsTiwmqqAAdllbnHlREOwZKO99n9ByqQ8FOILsE8c1yyKT2J7cM
MdOZE6iTO4JUD9Gqwfb+CvR3cOUfnmENQcKS4Q470wwsuDD9QJJat+sb3OUH
-----END CERTIFICATE-----
